ccopy_reg
_reconstructor
p1
(cgripper_tool
GripperState
p2
c__builtin__
object
p3
NtRp4
(dp5
S'self'
p6
(lp7
F8.3162000000000003
aF50
aS'right'
p8
asS'simple_state'
p9
(dp10
S'goal_cb_str'
p11
S'ros_goal'
p12
sS'input_keys'
p13
(lp14
sS'sb_state'
p15
(lp16
S'let_go'
p17
aS'gripper'
p18
a(dp19
aI01
asS'action_type'
p20
cpr2_controllers_msgs.msg._Pr2GripperCommandAction
Pr2GripperCommandAction
p21
sS'action_name'
p22
S'r_gripper_controller/gripper_action'
p23
ssb.