(ipoint_tool
Point3DState
p1
(dp2
S'self'
p3
(lp4
(lp5
F0.69999999999999996
aF-0.20000000000000001
aF0.56000000000000005
aaS'base_link'
p6
asS'simple_state'
p7
(lp8
S'point3d0'
p9
aS'point3d'
p10
a(dp11
aI00
asb.